target datalayout = "e-m:e-p270:32:32-p271:32:32-p272:64:64-i64:64-i128:128-f80:128-n8:16:32:64-S128"
target triple = "x86_64-pc-linux-gnu"

; Function Attrs: alwaysinline nounwind willreturn memory(none) uwtable
define internal zeroext i8 @av_clip_uint8_c(i32 noundef %0) #8 {
  %2 = alloca i8, align 1
  %3 = alloca i32, align 4
  store i32 %0, ptr %3, align 4, !tbaa !11
  %4 = load i32, ptr %3, align 4, !tbaa !11
  %5 = and i32 %4, -256
  %6 = icmp ne i32 %5, 0
  br i1 %6, label %7, label %12

7:                                                ; preds = %1
  %8 = load i32, ptr %3, align 4, !tbaa !11
  %9 = xor i32 %8, -1
  %10 = ashr i32 %9, 31
  %11 = trunc i32 %10 to i8
  store i8 %11, ptr %2, align 1
  br label %15

12:                                               ; preds = %1
  %13 = load i32, ptr %3, align 4, !tbaa !11
  %14 = trunc i32 %13 to i8
  store i8 %14, ptr %2, align 1
  br label %15

15:                                               ; preds = %12, %7
  %16 = load i8, ptr %2, align 1
  ret i8 %16
}

; Function Attrs: nounwind uwtable
define internal void @filter_column(ptr noundef %0, i32 noundef %1, float noundef %2, float noundef %3, ptr noundef %4, ptr noundef %5, i32 noundef %6, i32 noundef %7, i32 noundef %8, i32 noundef %9, i32 noundef %10) #0 {
  %12 = alloca ptr, align 8
  %13 = alloca i32, align 4
  %14 = alloca float, align 4
  %15 = alloca float, align 4
  %16 = alloca ptr, align 8
  %17 = alloca ptr, align 8
  %18 = alloca i32, align 4
  %19 = alloca i32, align 4
  %20 = alloca i32, align 4
  %21 = alloca i32, align 4
  %22 = alloca i32, align 4
  %23 = alloca [16 x i32], align 16
  %24 = alloca i32, align 4
  %25 = alloca i32, align 4
  %26 = alloca i32, align 4
  %27 = alloca i32, align 4
  %28 = alloca i32, align 4
  store ptr %0, ptr %12, align 8, !tbaa !9
  store i32 %1, ptr %13, align 4, !tbaa !11
  store float %2, ptr %14, align 4, !tbaa !52
  store float %3, ptr %15, align 4, !tbaa !52
  store ptr %4, ptr %16, align 8, !tbaa !53
  store ptr %5, ptr %17, align 8, !tbaa !89
  store i32 %6, ptr %18, align 4, !tbaa !11
  store i32 %7, ptr %19, align 4, !tbaa !11
  store i32 %8, ptr %20, align 4, !tbaa !11
  store i32 %9, ptr %21, align 4, !tbaa !11
  store i32 %10, ptr %22, align 4, !tbaa !11
  call void @llvm.lifetime.start.p0(i64 64, ptr %23) #10
  call void @llvm.lifetime.start.p0(i64 4, ptr %24) #10
  store i32 0, ptr %24, align 4, !tbaa !11
  br label %29

29:                                               ; preds = %118, %11
  %30 = load i32, ptr %24, align 4, !tbaa !11
  %31 = load i32, ptr %13, align 4, !tbaa !11
  %32 = icmp slt i32 %30, %31
  br i1 %32, label %34, label %33

33:                                               ; preds = %29
  store i32 2, ptr %25, align 4
  call void @llvm.lifetime.end.p0(i64 4, ptr %24) #10
  br label %121

34:                                               ; preds = %29
  %35 = getelementptr inbounds [16 x i32], ptr %23, i64 0, i64 0
  call void @llvm.memset.p0.i64(ptr align 16 %35, i8 0, i64 64, i1 false)
  call void @llvm.lifetime.start.p0(i64 4, ptr %26) #10
  store i32 0, ptr %26, align 4, !tbaa !11
  br label %36

36:                                               ; preds = %79, %34
  %37 = load i32, ptr %26, align 4, !tbaa !11
  %38 = load i32, ptr %19, align 4, !tbaa !11
  %39 = mul nsw i32 2, %38
  %40 = add nsw i32 %39, 1
  %41 = icmp slt i32 %37, %40
  br i1 %41, label %43, label %42

42:                                               ; preds = %36
  store i32 5, ptr %25, align 4
  call void @llvm.lifetime.end.p0(i64 4, ptr %26) #10
  br label %82

43:                                               ; preds = %36
  call void @llvm.lifetime.start.p0(i64 4, ptr %27) #10
  store i32 0, ptr %27, align 4, !tbaa !11
  br label %44

44:                                               ; preds = %75, %43
  %45 = load i32, ptr %27, align 4, !tbaa !11
  %46 = icmp slt i32 %45, 16
  br i1 %46, label %48, label %47

47:                                               ; preds = %44
  store i32 8, ptr %25, align 4
  call void @llvm.lifetime.end.p0(i64 4, ptr %27) #10
  br label %78

48:                                               ; preds = %44
  %49 = load ptr, ptr %17, align 8, !tbaa !89
  %50 = load i32, ptr %26, align 4, !tbaa !11
  %51 = sext i32 %50 to i64
  %52 = getelementptr inbounds ptr, ptr %49, i64 %51
  %53 = load ptr, ptr %52, align 8, !tbaa !9
  %54 = load i32, ptr %24, align 4, !tbaa !11
  %55 = load i32, ptr %21, align 4, !tbaa !11
  %56 = mul nsw i32 %54, %55
  %57 = add nsw i32 0, %56
  %58 = load i32, ptr %27, align 4, !tbaa !11
  %59 = add nsw i32 %57, %58
  %60 = sext i32 %59 to i64
  %61 = getelementptr inbounds i8, ptr %53, i64 %60
  %62 = load i8, ptr %61, align 1, !tbaa !91
  %63 = zext i8 %62 to i32
  %64 = load ptr, ptr %16, align 8, !tbaa !53
  %65 = load i32, ptr %26, align 4, !tbaa !11
  %66 = sext i32 %65 to i64
  %67 = getelementptr inbounds i32, ptr %64, i64 %66
  %68 = load i32, ptr %67, align 4, !tbaa !11
  %69 = mul nsw i32 %63, %68
  %70 = load i32, ptr %27, align 4, !tbaa !11
  %71 = sext i32 %70 to i64
  %72 = getelementptr inbounds [16 x i32], ptr %23, i64 0, i64 %71
  %73 = load i32, ptr %72, align 4, !tbaa !11
  %74 = add nsw i32 %73, %69
  store i32 %74, ptr %72, align 4, !tbaa !11
  br label %75

75:                                               ; preds = %48
  %76 = load i32, ptr %27, align 4, !tbaa !11
  %77 = add nsw i32 %76, 1
  store i32 %77, ptr %27, align 4, !tbaa !11
  br label %44, !llvm.loop !95

78:                                               ; preds = %47
  br label %79

79:                                               ; preds = %78
  %80 = load i32, ptr %26, align 4, !tbaa !11
  %81 = add nsw i32 %80, 1
  store i32 %81, ptr %26, align 4, !tbaa !11
  br label %36, !llvm.loop !96

82:                                               ; preds = %42
  call void @llvm.lifetime.start.p0(i64 4, ptr %28) #10
  store i32 0, ptr %28, align 4, !tbaa !11
  br label %83

83:                                               ; preds = %110, %82
  %84 = load i32, ptr %28, align 4, !tbaa !11
  %85 = icmp slt i32 %84, 16
  br i1 %85, label %87, label %86

86:                                               ; preds = %83
  store i32 11, ptr %25, align 4
  call void @llvm.lifetime.end.p0(i64 4, ptr %28) #10
  br label %113

87:                                               ; preds = %83
  %88 = load i32, ptr %28, align 4, !tbaa !11
  %89 = sext i32 %88 to i64
  %90 = getelementptr inbounds [16 x i32], ptr %23, i64 0, i64 %89
  %91 = load i32, ptr %90, align 4, !tbaa !11
  %92 = sitofp i32 %91 to float
  %93 = load float, ptr %14, align 4, !tbaa !52
  %94 = load float, ptr %15, align 4, !tbaa !52
  %95 = call nsz float @llvm.fmuladd.f32(float %92, float %93, float %94)
  %96 = fadd nsz float %95, 5.000000e-01
  %97 = fptosi float %96 to i32
  %98 = load i32, ptr %28, align 4, !tbaa !11
  %99 = sext i32 %98 to i64
  %100 = getelementptr inbounds [16 x i32], ptr %23, i64 0, i64 %99
  store i32 %97, ptr %100, align 4, !tbaa !11
  %101 = load i32, ptr %28, align 4, !tbaa !11
  %102 = sext i32 %101 to i64
  %103 = getelementptr inbounds [16 x i32], ptr %23, i64 0, i64 %102
  %104 = load i32, ptr %103, align 4, !tbaa !11
  %105 = call zeroext i8 @av_clip_uint8_c(i32 noundef %104) #12
  %106 = load ptr, ptr %12, align 8, !tbaa !9
  %107 = load i32, ptr %28, align 4, !tbaa !11
  %108 = sext i32 %107 to i64
  %109 = getelementptr inbounds i8, ptr %106, i64 %108
  store i8 %105, ptr %109, align 1, !tbaa !91
  br label %110

110:                                              ; preds = %87
  %111 = load i32, ptr %28, align 4, !tbaa !11
  %112 = add nsw i32 %111, 1
  store i32 %112, ptr %28, align 4, !tbaa !11
  br label %83, !llvm.loop !97

113:                                              ; preds = %86
  %114 = load i32, ptr %20, align 4, !tbaa !11
  %115 = load ptr, ptr %12, align 8, !tbaa !9
  %116 = sext i32 %114 to i64
  %117 = getelementptr inbounds i8, ptr %115, i64 %116
  store ptr %117, ptr %12, align 8, !tbaa !9
  br label %118

118:                                              ; preds = %113
  %119 = load i32, ptr %24, align 4, !tbaa !11
  %120 = add nsw i32 %119, 1
  store i32 %120, ptr %24, align 4, !tbaa !11
  br label %29, !llvm.loop !98

121:                                              ; preds = %33
  call void @llvm.lifetime.end.p0(i64 64, ptr %23) #10
  ret void
}