; Function Attrs: nofree norecurse nosync nounwind memory(read, argmem: readwrite, inaccessiblemem: none) uwtable
define internal void @filter_column(ptr noundef writeonly captures(none) %0, i32 noundef %1, float noundef %2, float noundef %3, ptr noundef readonly captures(none) %4, ptr noundef readonly captures(none) %5, i32 %6, i32 noundef %7, i32 noundef %8, i32 noundef %9, i32 %10) #6 {
  %12 = alloca [16 x i32], align 16
  call void @llvm.lifetime.start.p0(i64 64, ptr nonnull %12) #12
  %13 = icmp sgt i32 %1, 0
  br i1 %13, label %.lr.ph, label %._crit_edge

.lr.ph:                                           ; preds = %11
  %.not32 = icmp slt i32 %7, 0
  %14 = sext i32 %8 to i64
  br i1 %.not32, label %.preheader30.us, label %.preheader.lr.ph.preheader

.preheader.lr.ph.preheader:                       ; preds = %.lr.ph
  %15 = shl nuw i32 %7, 1
  %smax = tail call i32 @llvm.smax.i32(i32 %15, i32 0)
  %16 = or disjoint i32 %smax, 1
  %17 = sext i32 %9 to i64
  %wide.trip.count50 = zext nneg i32 %1 to i64
  %wide.trip.count = zext nneg i32 %16 to i64
  br label %.preheader.lr.ph

.preheader30.us:                                  ; preds = %.lr.ph, %18
  %.02836.us = phi i32 [ %20, %18 ], [ 0, %.lr.ph ]
  %.02935.us = phi ptr [ %19, %18 ], [ %0, %.lr.ph ]
  call void @llvm.memset.p0.i64(ptr noundef nonnull align 16 dereferenceable(64) %12, i8 0, i64 64, i1 false)
  br label %21

18:                                               ; preds = %21
  %19 = getelementptr inbounds i8, ptr %.02935.us, i64 %14
  %20 = add nuw nsw i32 %.02836.us, 1
  %exitcond56.not = icmp eq i32 %20, %1
  br i1 %exitcond56.not, label %._crit_edge, label %.preheader30.us, !llvm.loop !86

21:                                               ; preds = %.preheader30.us, %21
  %indvars.iv52 = phi i64 [ 0, %.preheader30.us ], [ %indvars.iv.next53, %21 ]
  %22 = getelementptr inbounds nuw [16 x i32], ptr %12, i64 0, i64 %indvars.iv52
  %23 = load i32, ptr %22, align 4, !tbaa !39
  %24 = sitofp i32 %23 to float
  %25 = tail call nsz float @llvm.fmuladd.f32(float %24, float %2, float %3)
  %26 = fadd nsz float %25, 5.000000e-01
  %27 = fptosi float %26 to i32
  store i32 %27, ptr %22, align 4, !tbaa !39
  %.not.i.us = icmp ult i32 %27, 256
  %isnotneg.i.us = icmp sgt i32 %27, -1
  %28 = sext i1 %isnotneg.i.us to i8
  %29 = trunc nuw i32 %27 to i8
  %.0.i.us = select i1 %.not.i.us, i8 %29, i8 %28
  %30 = getelementptr inbounds nuw i8, ptr %.02935.us, i64 %indvars.iv52
  store i8 %.0.i.us, ptr %30, align 1, !tbaa !82
  %indvars.iv.next53 = add nuw nsw i64 %indvars.iv52, 1
  %exitcond55.not = icmp eq i64 %indvars.iv.next53, 16
  br i1 %exitcond55.not, label %18, label %21, !llvm.loop !87

._crit_edge:                                      ; preds = %44, %18, %11
  call void @llvm.lifetime.end.p0(i64 64, ptr nonnull %12) #12
  ret void

.preheader.lr.ph:                                 ; preds = %.preheader.lr.ph.preheader, %44
  %indvars.iv47 = phi i64 [ 0, %.preheader.lr.ph.preheader ], [ %indvars.iv.next48, %44 ]
  %.02935 = phi ptr [ %0, %.preheader.lr.ph.preheader ], [ %45, %44 ]
  call void @llvm.memset.p0.i64(ptr noundef nonnull align 16 dereferenceable(64) %12, i8 0, i64 64, i1 false)
  %31 = mul nsw i64 %indvars.iv47, %17
  br label %.preheader

.preheader:                                       ; preds = %.preheader.lr.ph, %36
  %indvars.iv39 = phi i64 [ 0, %.preheader.lr.ph ], [ %indvars.iv.next40, %36 ]
  %32 = getelementptr inbounds nuw ptr, ptr %5, i64 %indvars.iv39
  %33 = load ptr, ptr %32, align 8, !tbaa !46
  %34 = getelementptr inbounds nuw i32, ptr %4, i64 %indvars.iv39
  %35 = load i32, ptr %34, align 4, !tbaa !39
  %invariant.gep = getelementptr i8, ptr %33, i64 %31
  br label %37

36:                                               ; preds = %37
  %indvars.iv.next40 = add nuw nsw i64 %indvars.iv39, 1
  %exitcond42.not = icmp eq i64 %indvars.iv.next40, %wide.trip.count
  br i1 %exitcond42.not, label %..preheader30_crit_edge, label %.preheader, !llvm.loop !88

37:                                               ; preds = %.preheader, %37
  %indvars.iv = phi i64 [ 0, %.preheader ], [ %indvars.iv.next, %37 ]
  %gep = getelementptr i8, ptr %invariant.gep, i64 %indvars.iv
  %38 = load i8, ptr %gep, align 1, !tbaa !82
  %39 = zext i8 %38 to i32
  %40 = mul nsw i32 %35, %39
  %41 = getelementptr inbounds nuw [16 x i32], ptr %12, i64 0, i64 %indvars.iv
  %42 = load i32, ptr %41, align 4, !tbaa !39
  %43 = add nsw i32 %42, %40
  store i32 %43, ptr %41, align 4, !tbaa !39
  %indvars.iv.next = add nuw nsw i64 %indvars.iv, 1
  %exitcond.not = icmp eq i64 %indvars.iv.next, 16
  br i1 %exitcond.not, label %36, label %37, !llvm.loop !89

44:                                               ; preds = %..preheader30_crit_edge
  %45 = getelementptr inbounds i8, ptr %.02935, i64 %14
  %indvars.iv.next48 = add nuw nsw i64 %indvars.iv47, 1
  %exitcond51.not = icmp eq i64 %indvars.iv.next48, %wide.trip.count50
  br i1 %exitcond51.not, label %._crit_edge, label %.preheader.lr.ph, !llvm.loop !86

..preheader30_crit_edge:                          ; preds = %36, %..preheader30_crit_edge
  %indvars.iv43 = phi i64 [ %indvars.iv.next44, %..preheader30_crit_edge ], [ 0, %36 ]
  %46 = getelementptr inbounds nuw [16 x i32], ptr %12, i64 0, i64 %indvars.iv43
  %47 = load i32, ptr %46, align 4, !tbaa !39
  %48 = sitofp i32 %47 to float
  %49 = tail call nsz float @llvm.fmuladd.f32(float %48, float %2, float %3)
  %50 = fadd nsz float %49, 5.000000e-01
  %51 = fptosi float %50 to i32
  store i32 %51, ptr %46, align 4, !tbaa !39
  %.not.i = icmp ult i32 %51, 256
  %isnotneg.i = icmp sgt i32 %51, -1
  %52 = sext i1 %isnotneg.i to i8
  %53 = trunc nuw i32 %51 to i8
  %.0.i = select i1 %.not.i, i8 %53, i8 %52
  %54 = getelementptr inbounds nuw i8, ptr %.02935, i64 %indvars.iv43
  store i8 %.0.i, ptr %54, align 1, !tbaa !82
  %indvars.iv.next44 = add nuw nsw i64 %indvars.iv43, 1
  %exitcond46.not = icmp eq i64 %indvars.iv.next44, 16
  br i1 %exitcond46.not, label %44, label %..preheader30_crit_edge, !llvm.loop !87
}